target datalayout = "e-m:e-p270:32:32-p271:32:32-p272:64:64-i64:64-i128:128-f80:128-n8:16:32:64-S128"
target triple = "x86_64-pc-linux-gnu"

%struct._zend_accel_hash = type { ptr, ptr, i32, i32, i32 }

@prime_numbers = internal constant [18 x i32] [i32 5, i32 11, i32 19, i32 53, i32 107, i32 223, i32 463, i32 983, i32 1979, i32 3907, i32 7963, i32 16229, i32 32531, i32 65407, i32 130987, i32 262237, i32 524521, i32 1048793], align 16
@.str = private unnamed_addr constant [28 x i8] c"Insufficient shared memory!\00", align 1

; Function Attrs: nounwind uwtable
define hidden void @zend_accel_hash_init(ptr noundef %0, i32 noundef %1) #0 {
  %3 = alloca ptr, align 8
  %4 = alloca i32, align 4
  %5 = alloca i32, align 4
  store ptr %0, ptr %3, align 8
  store i32 %1, ptr %4, align 4
  store i32 0, ptr %5, align 4
  br label %6

6:                                                ; preds = %22, %2
  %7 = load i32, ptr %5, align 4
  %8 = icmp ult i32 %7, 18
  br i1 %8, label %9, label %25

9:                                                ; preds = %6
  %10 = load i32, ptr %4, align 4
  %11 = load i32, ptr %5, align 4
  %12 = zext i32 %11 to i64
  %13 = getelementptr inbounds [18 x i32], ptr @prime_numbers, i64 0, i64 %12
  %14 = load i32, ptr %13, align 4
  %15 = icmp ule i32 %10, %14
  br i1 %15, label %16, label %21

16:                                               ; preds = %9
  %17 = load i32, ptr %5, align 4
  %18 = zext i32 %17 to i64
  %19 = getelementptr inbounds [18 x i32], ptr @prime_numbers, i64 0, i64 %18
  %20 = load i32, ptr %19, align 4
  store i32 %20, ptr %4, align 4
  br label %25

21:                                               ; preds = %9
  br label %22

22:                                               ; preds = %21
  %23 = load i32, ptr %5, align 4
  %24 = add i32 %23, 1
  store i32 %24, ptr %5, align 4
  br label %6

25:                                               ; preds = %16, %6
  %26 = load ptr, ptr %3, align 8
  %27 = getelementptr inbounds %struct._zend_accel_hash, ptr %26, i32 0, i32 2
  store i32 0, ptr %27, align 8
  %28 = load ptr, ptr %3, align 8
  %29 = getelementptr inbounds %struct._zend_accel_hash, ptr %28, i32 0, i32 4
  store i32 0, ptr %29, align 8
  %30 = load i32, ptr %4, align 4
  %31 = load ptr, ptr %3, align 8
  %32 = getelementptr inbounds %struct._zend_accel_hash, ptr %31, i32 0, i32 3
  store i32 %30, ptr %32, align 4
  %33 = load ptr, ptr %3, align 8
  %34 = getelementptr inbounds %struct._zend_accel_hash, ptr %33, i32 0, i32 3
  %35 = load i32, ptr %34, align 4
  %36 = zext i32 %35 to i64
  %37 = mul i64 8, %36
  %38 = call ptr @zend_shared_alloc(i64 noundef %37)
  %39 = load ptr, ptr %3, align 8
  %40 = getelementptr inbounds %struct._zend_accel_hash, ptr %39, i32 0, i32 0
  store ptr %38, ptr %40, align 8
  %41 = load ptr, ptr %3, align 8
  %42 = getelementptr inbounds %struct._zend_accel_hash, ptr %41, i32 0, i32 0
  %43 = load ptr, ptr %42, align 8
  %44 = icmp ne ptr %43, null
  br i1 %44, label %46, label %45

45:                                               ; preds = %25
  call void (i32, ptr, ...) @zend_accel_error_noreturn(i32 noundef 0, ptr noundef @.str) #4
  unreachable

46:                                               ; preds = %25
  %47 = load ptr, ptr %3, align 8
  %48 = getelementptr inbounds %struct._zend_accel_hash, ptr %47, i32 0, i32 3
  %49 = load i32, ptr %48, align 4
  %50 = zext i32 %49 to i64
  %51 = mul i64 40, %50
  %52 = call ptr @zend_shared_alloc(i64 noundef %51)
  %53 = load ptr, ptr %3, align 8
  %54 = getelementptr inbounds %struct._zend_accel_hash, ptr %53, i32 0, i32 1
  store ptr %52, ptr %54, align 8
  %55 = load ptr, ptr %3, align 8
  %56 = getelementptr inbounds %struct._zend_accel_hash, ptr %55, i32 0, i32 1
  %57 = load ptr, ptr %56, align 8
  %58 = icmp ne ptr %57, null
  br i1 %58, label %60, label %59

59:                                               ; preds = %46
  call void (i32, ptr, ...) @zend_accel_error_noreturn(i32 noundef 0, ptr noundef @.str) #4
  unreachable

60:                                               ; preds = %46
  %61 = load ptr, ptr %3, align 8
  %62 = getelementptr inbounds %struct._zend_accel_hash, ptr %61, i32 0, i32 0
  %63 = load ptr, ptr %62, align 8
  %64 = load ptr, ptr %3, align 8
  %65 = getelementptr inbounds %struct._zend_accel_hash, ptr %64, i32 0, i32 3
  %66 = load i32, ptr %65, align 4
  %67 = zext i32 %66 to i64
  %68 = mul i64 8, %67
  call void @llvm.memset.p0.i64(ptr align 8 %63, i8 0, i64 %68, i1 false)
  ret void
}