; Function Attrs: nounwind uwtable
define hidden void @zend_accel_hash_init(ptr nocapture noundef %0, i32 noundef %1) local_unnamed_addr #2 {
  br label %4

3:                                                ; preds = %4
  %indvars.iv.next = add nuw nsw i64 %indvars.iv, 1
  %exitcond.not = icmp eq i64 %indvars.iv.next, 18
  br i1 %exitcond.not, label %7, label %4

4:                                                ; preds = %2, %3
  %indvars.iv = phi i64 [ 0, %2 ], [ %indvars.iv.next, %3 ]
  %5 = getelementptr inbounds [18 x i32], ptr @prime_numbers, i64 0, i64 %indvars.iv
  %6 = load i32, ptr %5, align 4
  %.not = icmp ult i32 %6, %1
  br i1 %.not, label %3, label %7

7:                                                ; preds = %4, %3
  %.016 = phi i32 [ %1, %3 ], [ %6, %4 ]
  %8 = getelementptr inbounds i8, ptr %0, i64 16
  store i32 0, ptr %8, align 8
  %9 = getelementptr inbounds i8, ptr %0, i64 24
  store i32 0, ptr %9, align 8
  %10 = getelementptr inbounds i8, ptr %0, i64 20
  store i32 %.016, ptr %10, align 4
  %11 = zext i32 %.016 to i64
  %12 = shl nuw nsw i64 %11, 3
  %13 = tail call ptr @zend_shared_alloc(i64 noundef %12) #5
  store ptr %13, ptr %0, align 8
  %.not18 = icmp eq ptr %13, null
  br i1 %.not18, label %14, label %15

14:                                               ; preds = %7
  tail call void (i32, ptr, ...) @zend_accel_error_noreturn(i32 noundef 0, ptr noundef nonnull @.str) #6
  unreachable

15:                                               ; preds = %7
  %16 = load i32, ptr %10, align 4
  %17 = zext i32 %16 to i64
  %18 = mul nuw nsw i64 %17, 40
  %19 = tail call ptr @zend_shared_alloc(i64 noundef %18) #5
  %20 = getelementptr inbounds i8, ptr %0, i64 8
  store ptr %19, ptr %20, align 8
  %.not19 = icmp eq ptr %19, null
  br i1 %.not19, label %21, label %22

21:                                               ; preds = %15
  tail call void (i32, ptr, ...) @zend_accel_error_noreturn(i32 noundef 0, ptr noundef nonnull @.str) #6
  unreachable

22:                                               ; preds = %15
  %23 = load ptr, ptr %0, align 8
  %24 = load i32, ptr %10, align 4
  %25 = zext i32 %24 to i64
  %26 = shl nuw nsw i64 %25, 3
  tail call void @llvm.memset.p0.i64(ptr align 8 %23, i8 0, i64 %26, i1 false)
  ret void
}